target datalayout = "e-m:e-p270:32:32-p271:32:32-p272:64:64-i64:64-i128:128-f80:128-n8:16:32:64-S128"
target triple = "x86_64-pc-linux-gnu"

@.str.2 = private unnamed_addr constant [5 x i8] c"%.8g\00", align 1

; Function Attrs: mustprogress nounwind uwtable
define hidden void @_ZN2cv8tinyxml27XMLUtil5ToStrEfPci(float noundef %0, ptr noundef %1, i32 noundef %2) #0 align 2 {
  %4 = alloca float, align 4
  %5 = alloca ptr, align 8
  %6 = alloca i32, align 4
  store float %0, ptr %4, align 4, !tbaa !41
  store ptr %1, ptr %5, align 8, !tbaa !14
  store i32 %2, ptr %6, align 4, !tbaa !15
  %7 = load ptr, ptr %5, align 8, !tbaa !14
  %8 = load i32, ptr %6, align 4, !tbaa !15
  %9 = sext i32 %8 to i64
  %10 = load float, ptr %4, align 4, !tbaa !41
  %11 = fpext float %10 to double
  %12 = call i32 (ptr, i64, ptr, ...) @snprintf(ptr noundef %7, i64 noundef %9, ptr noundef @.str.2, double noundef %11) #17
  ret void
}

; Function Attrs: mustprogress uwtable
define hidden void @_ZN2cv8tinyxml210XMLElement7SetTextEf(ptr noundef nonnull align 8 dereferenceable(104) %0, float noundef %1) #3 align 2 {
  %3 = alloca ptr, align 8
  %4 = alloca float, align 4
  %5 = alloca [200 x i8], align 16
  store ptr %0, ptr %3, align 8, !tbaa !121
  store float %1, ptr %4, align 4, !tbaa !41
  %6 = load ptr, ptr %3, align 8
  call void @llvm.lifetime.start.p0(i64 200, ptr %5) #17
  %7 = load float, ptr %4, align 4, !tbaa !41
  %8 = getelementptr inbounds [200 x i8], ptr %5, i64 0, i64 0
  call void @_ZN2cv8tinyxml27XMLUtil5ToStrEfPci(float noundef %7, ptr noundef %8, i32 noundef 200)
  %9 = getelementptr inbounds [200 x i8], ptr %5, i64 0, i64 0
  call void @_ZN2cv8tinyxml210XMLElement7SetTextEPKc(ptr noundef nonnull align 8 dereferenceable(104) %6, ptr noundef %9)
  call void @llvm.lifetime.end.p0(i64 200, ptr %5) #17
  ret void
}