; Function Attrs: mustprogress uwtable
define hidden void @_ZN2cv8tinyxml210XMLElement7SetTextEf(ptr noundef nonnull align 8 dereferenceable(104) %0, float noundef %1) local_unnamed_addr #4 align 2 {
  %3 = alloca [200 x i8], align 16
  call void @llvm.lifetime.start.p0(i64 200, ptr nonnull %3) #24
  %4 = fpext float %1 to double
  %5 = call i32 (ptr, i64, ptr, ...) @snprintf(ptr noundef nonnull dereferenceable(1) %3, i64 noundef 200, ptr noundef nonnull @.str.2, double noundef %4) #24
  call void @_ZN2cv8tinyxml210XMLElement7SetTextEPKc(ptr noundef nonnull align 8 dereferenceable(104) %0, ptr noundef nonnull %3)
  call void @llvm.lifetime.end.p0(i64 200, ptr nonnull %3) #24
  ret void
}